; Function Attrs: mustprogress uwtable
define hidden noundef i32 @_ZN2cv13wechat_qrcode11SSDDetector4initERKNSt7__cxx1112basic_stringIcSt11char_traitsIcESaIcEEES9_(ptr noundef nonnull align 8 captures(none) dereferenceable(16) initializes((0, 8)) %0, ptr noundef nonnull align 8 dereferenceable(32) %1, ptr noundef nonnull align 8 dereferenceable(32) %2) local_unnamed_addr #0 align 2 personality ptr @__gxx_personality_v0 {
  %4 = alloca %"class.cv::dnn::dnn4_v20241223::Net", align 8
  call void @llvm.lifetime.start.p0(i64 16, ptr nonnull %4) #15
  call void @_ZN2cv3dnn14dnn4_v2024122316readNetFromCaffeERKNSt7__cxx1112basic_stringIcSt11char_traitsIcESaIcEEES9_(ptr dead_on_unwind nonnull writable sret(%"class.cv::dnn::dnn4_v20241223::Net") align 8 %4, ptr noundef nonnull align 8 dereferenceable(32) %1, ptr noundef nonnull align 8 dereferenceable(32) %2)
  %5 = load ptr, ptr %4, align 8, !tbaa !3
  store ptr %5, ptr %0, align 8, !tbaa !3
  %6 = getelementptr inbounds nuw i8, ptr %0, i64 8
  %7 = getelementptr inbounds nuw i8, ptr %4, i64 8
  %8 = load ptr, ptr %7, align 8, !tbaa !11
  %9 = load ptr, ptr %6, align 8, !tbaa !11
  %.not.i.i.i.i.i = icmp eq ptr %8, %9
  br i1 %.not.i.i.i.i.i, label %_ZN2cv3dnn14dnn4_v202412233NetaSERKS2_.exit, label %10

10:                                               ; preds = %3
  %.not7.i.i.i.i.i = icmp eq ptr %8, null
  br i1 %.not7.i.i.i.i.i, label %_ZNSt16_Sp_counted_baseILN9__gnu_cxx12_Lock_policyE2EE15_M_add_ref_copyEv.exit.i.i.i.i.i, label %11

11:                                               ; preds = %10
  %12 = getelementptr inbounds nuw i8, ptr %8, i64 8
  %13 = load i8, ptr @__libc_single_threaded, align 1, !tbaa !12
  %.not.i.i.i.i.i.i = icmp eq i8 %13, 0
  br i1 %.not.i.i.i.i.i.i, label %17, label %14

14:                                               ; preds = %11
  %15 = load i32, ptr %12, align 4, !tbaa !13
  %16 = add nsw i32 %15, 1
  store i32 %16, ptr %12, align 4, !tbaa !13
  br label %_ZNSt16_Sp_counted_baseILN9__gnu_cxx12_Lock_policyE2EE15_M_add_ref_copyEv.exit.i.i.i.i.i

17:                                               ; preds = %11
  %18 = atomicrmw volatile add ptr %12, i32 1 acq_rel, align 4
  %.pr.pre.i.i.i.i.i = load ptr, ptr %6, align 8, !tbaa !11
  br label %_ZNSt16_Sp_counted_baseILN9__gnu_cxx12_Lock_policyE2EE15_M_add_ref_copyEv.exit.i.i.i.i.i

_ZNSt16_Sp_counted_baseILN9__gnu_cxx12_Lock_policyE2EE15_M_add_ref_copyEv.exit.i.i.i.i.i: ; preds = %17, %14, %10
  %19 = phi ptr [ %9, %10 ], [ %9, %14 ], [ %.pr.pre.i.i.i.i.i, %17 ]
  %.not8.i.i.i.i.i = icmp eq ptr %19, null
  br i1 %.not8.i.i.i.i.i, label %_ZNSt16_Sp_counted_baseILN9__gnu_cxx12_Lock_policyE2EE10_M_releaseEv.exit.i.i.i.i.i, label %20

20:                                               ; preds = %_ZNSt16_Sp_counted_baseILN9__gnu_cxx12_Lock_policyE2EE15_M_add_ref_copyEv.exit.i.i.i.i.i
  %21 = getelementptr inbounds nuw i8, ptr %19, i64 8
  %22 = load atomic i64, ptr %21 acquire, align 8
  %23 = icmp eq i64 %22, 4294967297
  %24 = trunc i64 %22 to i32
  br i1 %23, label %25, label %33

25:                                               ; preds = %20
  store i32 0, ptr %21, align 8, !tbaa !15
  %26 = getelementptr inbounds nuw i8, ptr %19, i64 12
  store i32 0, ptr %26, align 4, !tbaa !17
  %27 = load ptr, ptr %19, align 8, !tbaa !18
  %28 = getelementptr inbounds nuw i8, ptr %27, i64 16
  %29 = load ptr, ptr %28, align 8
  call void %29(ptr noundef nonnull align 8 dereferenceable(16) %19) #15
  %30 = load ptr, ptr %19, align 8, !tbaa !18
  %31 = getelementptr inbounds nuw i8, ptr %30, i64 24
  %32 = load ptr, ptr %31, align 8
  call void %32(ptr noundef nonnull align 8 dereferenceable(16) %19) #15
  br label %_ZNSt16_Sp_counted_baseILN9__gnu_cxx12_Lock_policyE2EE10_M_releaseEv.exit.i.i.i.i.i

33:                                               ; preds = %20
  %34 = load i8, ptr @__libc_single_threaded, align 1, !tbaa !12
  %.not.i9.i.i.i.i.i = icmp eq i8 %34, 0
  br i1 %.not.i9.i.i.i.i.i, label %37, label %35

35:                                               ; preds = %33
  %36 = add nsw i32 %24, -1
  store i32 %36, ptr %21, align 4, !tbaa !13
  br label %_ZN9__gnu_cxx27__exchange_and_add_dispatchEPii.exit.i.i.i.i.i.i

37:                                               ; preds = %33
  %38 = atomicrmw volatile add ptr %21, i32 -1 acq_rel, align 4
  br label %_ZN9__gnu_cxx27__exchange_and_add_dispatchEPii.exit.i.i.i.i.i.i

_ZN9__gnu_cxx27__exchange_and_add_dispatchEPii.exit.i.i.i.i.i.i: ; preds = %37, %35
  %.0.i.i.i.i.i.i.i = phi i32 [ %24, %35 ], [ %38, %37 ]
  %39 = icmp eq i32 %.0.i.i.i.i.i.i.i, 1
  br i1 %39, label %40, label %_ZNSt16_Sp_counted_baseILN9__gnu_cxx12_Lock_policyE2EE10_M_releaseEv.exit.i.i.i.i.i, !prof !20

40:                                               ; preds = %_ZN9__gnu_cxx27__exchange_and_add_dispatchEPii.exit.i.i.i.i.i.i
  call void @_ZNSt16_Sp_counted_baseILN9__gnu_cxx12_Lock_policyE2EE24_M_release_last_use_coldEv(ptr noundef nonnull align 8 dereferenceable(16) %19) #15
  br label %_ZNSt16_Sp_counted_baseILN9__gnu_cxx12_Lock_policyE2EE10_M_releaseEv.exit.i.i.i.i.i

_ZNSt16_Sp_counted_baseILN9__gnu_cxx12_Lock_policyE2EE10_M_releaseEv.exit.i.i.i.i.i: ; preds = %40, %_ZN9__gnu_cxx27__exchange_and_add_dispatchEPii.exit.i.i.i.i.i.i, %25, %_ZNSt16_Sp_counted_baseILN9__gnu_cxx12_Lock_policyE2EE15_M_add_ref_copyEv.exit.i.i.i.i.i
  store ptr %8, ptr %6, align 8, !tbaa !11
  br label %_ZN2cv3dnn14dnn4_v202412233NetaSERKS2_.exit

_ZN2cv3dnn14dnn4_v202412233NetaSERKS2_.exit:      ; preds = %_ZNSt16_Sp_counted_baseILN9__gnu_cxx12_Lock_policyE2EE10_M_releaseEv.exit.i.i.i.i.i, %3
  call void @_ZN2cv3dnn14dnn4_v202412233NetD1Ev(ptr noundef nonnull align 8 dereferenceable(16) %4) #15
  call void @llvm.lifetime.end.p0(i64 16, ptr nonnull %4) #15
  ret i32 0
}